target datalayout = "e-m:e-p270:32:32-p271:32:32-p272:64:64-i64:64-i128:128-f80:128-n8:16:32:64-S128"
target triple = "x86_64-pc-linux-gnu"

%"class.cv::Mat_" = type { %"class.cv::Mat" }
%"class.cv::Mat" = type { i32, i32, i32, i32, ptr, ptr, ptr, ptr, ptr, ptr, %"struct.cv::MatSize", %"struct.cv::MatStep" }
%"struct.cv::MatSize" = type { ptr }
%"struct.cv::MatStep" = type { ptr, [2 x i64] }
%"class.cv::TrackingFunctionPF::TrackingHistogram" = type { %"class.cv::Mat_", %"class.cv::Mat_" }
%"class.cv::TrackingFunctionPF" = type { %"class.cv::PFSolver::Function", %"class.cv::Mat", i32, i32, i32, %"class.cv::TrackingFunctionPF::TrackingHistogram" }
%"class.cv::PFSolver::Function" = type { %"class.cv::MinProblemSolver::Function" }
%"class.cv::MinProblemSolver::Function" = type { ptr }

; Function Attrs: mustprogress nounwind uwtable
define hidden void @_ZNK2cv18TrackingFunctionPF13correctParamsEPd(ptr noundef nonnull align 8 dereferenceable(312) %0, ptr noundef %1) unnamed_addr #8 align 2 {
  %3 = alloca ptr, align 8
  %4 = alloca ptr, align 8
  %5 = alloca double, align 8
  %6 = alloca double, align 8
  store ptr %0, ptr %3, align 8, !tbaa !119
  store ptr %1, ptr %4, align 8, !tbaa !64
  %7 = load ptr, ptr %3, align 8
  %8 = load ptr, ptr %4, align 8, !tbaa !64
  %9 = getelementptr inbounds double, ptr %8, i64 0
  %10 = load double, ptr %9, align 8, !tbaa !57
  %11 = fcmp olt double %10, 0.000000e+00
  br i1 %11, label %12, label %13

12:                                               ; preds = %2
  br label %17

13:                                               ; preds = %2
  %14 = load ptr, ptr %4, align 8, !tbaa !64
  %15 = getelementptr inbounds double, ptr %14, i64 0
  %16 = load double, ptr %15, align 8, !tbaa !57
  br label %17

17:                                               ; preds = %13, %12
  %18 = phi double [ 0.000000e+00, %12 ], [ %16, %13 ]
  %19 = getelementptr inbounds nuw %"class.cv::TrackingFunctionPF", ptr %7, i32 0, i32 1
  %20 = getelementptr inbounds nuw %"class.cv::Mat", ptr %19, i32 0, i32 3
  %21 = load i32, ptr %20, align 4, !tbaa !133
  %22 = sitofp i32 %21 to double
  %23 = fadd double %22, 9.000000e-01
  %24 = fcmp ogt double %18, %23
  br i1 %24, label %25, label %31

25:                                               ; preds = %17
  %26 = getelementptr inbounds nuw %"class.cv::TrackingFunctionPF", ptr %7, i32 0, i32 1
  %27 = getelementptr inbounds nuw %"class.cv::Mat", ptr %26, i32 0, i32 3
  %28 = load i32, ptr %27, align 4, !tbaa !133
  %29 = sitofp i32 %28 to double
  %30 = fadd double %29, 9.000000e-01
  br label %43

31:                                               ; preds = %17
  %32 = load ptr, ptr %4, align 8, !tbaa !64
  %33 = getelementptr inbounds double, ptr %32, i64 0
  %34 = load double, ptr %33, align 8, !tbaa !57
  %35 = fcmp olt double %34, 0.000000e+00
  br i1 %35, label %36, label %37

36:                                               ; preds = %31
  br label %41

37:                                               ; preds = %31
  %38 = load ptr, ptr %4, align 8, !tbaa !64
  %39 = getelementptr inbounds double, ptr %38, i64 0
  %40 = load double, ptr %39, align 8, !tbaa !57
  br label %41

41:                                               ; preds = %37, %36
  %42 = phi double [ 0.000000e+00, %36 ], [ %40, %37 ]
  br label %43

43:                                               ; preds = %41, %25
  %44 = phi double [ %30, %25 ], [ %42, %41 ]
  %45 = load ptr, ptr %4, align 8, !tbaa !64
  %46 = getelementptr inbounds double, ptr %45, i64 0
  store double %44, ptr %46, align 8, !tbaa !57
  %47 = load ptr, ptr %4, align 8, !tbaa !64
  %48 = getelementptr inbounds double, ptr %47, i64 1
  %49 = load double, ptr %48, align 8, !tbaa !57
  %50 = fcmp olt double %49, 0.000000e+00
  br i1 %50, label %51, label %52

51:                                               ; preds = %43
  br label %56

52:                                               ; preds = %43
  %53 = load ptr, ptr %4, align 8, !tbaa !64
  %54 = getelementptr inbounds double, ptr %53, i64 1
  %55 = load double, ptr %54, align 8, !tbaa !57
  br label %56

56:                                               ; preds = %52, %51
  %57 = phi double [ 0.000000e+00, %51 ], [ %55, %52 ]
  %58 = getelementptr inbounds nuw %"class.cv::TrackingFunctionPF", ptr %7, i32 0, i32 1
  %59 = getelementptr inbounds nuw %"class.cv::Mat", ptr %58, i32 0, i32 2
  %60 = load i32, ptr %59, align 8, !tbaa !134
  %61 = sitofp i32 %60 to double
  %62 = fadd double %61, 9.000000e-01
  %63 = fcmp ogt double %57, %62
  br i1 %63, label %64, label %70

64:                                               ; preds = %56
  %65 = getelementptr inbounds nuw %"class.cv::TrackingFunctionPF", ptr %7, i32 0, i32 1
  %66 = getelementptr inbounds nuw %"class.cv::Mat", ptr %65, i32 0, i32 2
  %67 = load i32, ptr %66, align 8, !tbaa !134
  %68 = sitofp i32 %67 to double
  %69 = fadd double %68, 9.000000e-01
  br label %82

70:                                               ; preds = %56
  %71 = load ptr, ptr %4, align 8, !tbaa !64
  %72 = getelementptr inbounds double, ptr %71, i64 1
  %73 = load double, ptr %72, align 8, !tbaa !57
  %74 = fcmp olt double %73, 0.000000e+00
  br i1 %74, label %75, label %76

75:                                               ; preds = %70
  br label %80

76:                                               ; preds = %70
  %77 = load ptr, ptr %4, align 8, !tbaa !64
  %78 = getelementptr inbounds double, ptr %77, i64 1
  %79 = load double, ptr %78, align 8, !tbaa !57
  br label %80

80:                                               ; preds = %76, %75
  %81 = phi double [ 0.000000e+00, %75 ], [ %79, %76 ]
  br label %82

82:                                               ; preds = %80, %64
  %83 = phi double [ %69, %64 ], [ %81, %80 ]
  %84 = load ptr, ptr %4, align 8, !tbaa !64
  %85 = getelementptr inbounds double, ptr %84, i64 1
  store double %83, ptr %85, align 8, !tbaa !57
  %86 = load ptr, ptr %4, align 8, !tbaa !64
  %87 = getelementptr inbounds double, ptr %86, i64 2
  %88 = load double, ptr %87, align 8, !tbaa !57
  %89 = fcmp olt double %88, 0.000000e+00
  br i1 %89, label %90, label %91

90:                                               ; preds = %82
  br label %95

91:                                               ; preds = %82
  %92 = load ptr, ptr %4, align 8, !tbaa !64
  %93 = getelementptr inbounds double, ptr %92, i64 2
  %94 = load double, ptr %93, align 8, !tbaa !57
  br label %95

95:                                               ; preds = %91, %90
  %96 = phi double [ 0.000000e+00, %90 ], [ %94, %91 ]
  %97 = getelementptr inbounds nuw %"class.cv::TrackingFunctionPF", ptr %7, i32 0, i32 1
  %98 = getelementptr inbounds nuw %"class.cv::Mat", ptr %97, i32 0, i32 3
  %99 = load i32, ptr %98, align 4, !tbaa !133
  %100 = sitofp i32 %99 to double
  %101 = fadd double %100, 9.000000e-01
  %102 = fcmp ogt double %96, %101
  br i1 %102, label %103, label %109

103:                                              ; preds = %95
  %104 = getelementptr inbounds nuw %"class.cv::TrackingFunctionPF", ptr %7, i32 0, i32 1
  %105 = getelementptr inbounds nuw %"class.cv::Mat", ptr %104, i32 0, i32 3
  %106 = load i32, ptr %105, align 4, !tbaa !133
  %107 = sitofp i32 %106 to double
  %108 = fadd double %107, 9.000000e-01
  br label %121

109:                                              ; preds = %95
  %110 = load ptr, ptr %4, align 8, !tbaa !64
  %111 = getelementptr inbounds double, ptr %110, i64 2
  %112 = load double, ptr %111, align 8, !tbaa !57
  %113 = fcmp olt double %112, 0.000000e+00
  br i1 %113, label %114, label %115

114:                                              ; preds = %109
  br label %119

115:                                              ; preds = %109
  %116 = load ptr, ptr %4, align 8, !tbaa !64
  %117 = getelementptr inbounds double, ptr %116, i64 2
  %118 = load double, ptr %117, align 8, !tbaa !57
  br label %119

119:                                              ; preds = %115, %114
  %120 = phi double [ 0.000000e+00, %114 ], [ %118, %115 ]
  br label %121

121:                                              ; preds = %119, %103
  %122 = phi double [ %108, %103 ], [ %120, %119 ]
  %123 = load ptr, ptr %4, align 8, !tbaa !64
  %124 = getelementptr inbounds double, ptr %123, i64 2
  store double %122, ptr %124, align 8, !tbaa !57
  %125 = load ptr, ptr %4, align 8, !tbaa !64
  %126 = getelementptr inbounds double, ptr %125, i64 3
  %127 = load double, ptr %126, align 8, !tbaa !57
  %128 = fcmp olt double %127, 0.000000e+00
  br i1 %128, label %129, label %130

129:                                              ; preds = %121
  br label %134

130:                                              ; preds = %121
  %131 = load ptr, ptr %4, align 8, !tbaa !64
  %132 = getelementptr inbounds double, ptr %131, i64 3
  %133 = load double, ptr %132, align 8, !tbaa !57
  br label %134

134:                                              ; preds = %130, %129
  %135 = phi double [ 0.000000e+00, %129 ], [ %133, %130 ]
  %136 = getelementptr inbounds nuw %"class.cv::TrackingFunctionPF", ptr %7, i32 0, i32 1
  %137 = getelementptr inbounds nuw %"class.cv::Mat", ptr %136, i32 0, i32 2
  %138 = load i32, ptr %137, align 8, !tbaa !134
  %139 = sitofp i32 %138 to double
  %140 = fadd double %139, 9.000000e-01
  %141 = fcmp ogt double %135, %140
  br i1 %141, label %142, label %148

142:                                              ; preds = %134
  %143 = getelementptr inbounds nuw %"class.cv::TrackingFunctionPF", ptr %7, i32 0, i32 1
  %144 = getelementptr inbounds nuw %"class.cv::Mat", ptr %143, i32 0, i32 2
  %145 = load i32, ptr %144, align 8, !tbaa !134
  %146 = sitofp i32 %145 to double
  %147 = fadd double %146, 9.000000e-01
  br label %160

148:                                              ; preds = %134
  %149 = load ptr, ptr %4, align 8, !tbaa !64
  %150 = getelementptr inbounds double, ptr %149, i64 3
  %151 = load double, ptr %150, align 8, !tbaa !57
  %152 = fcmp olt double %151, 0.000000e+00
  br i1 %152, label %153, label %154

153:                                              ; preds = %148
  br label %158

154:                                              ; preds = %148
  %155 = load ptr, ptr %4, align 8, !tbaa !64
  %156 = getelementptr inbounds double, ptr %155, i64 3
  %157 = load double, ptr %156, align 8, !tbaa !57
  br label %158

158:                                              ; preds = %154, %153
  %159 = phi double [ 0.000000e+00, %153 ], [ %157, %154 ]
  br label %160

160:                                              ; preds = %158, %142
  %161 = phi double [ %147, %142 ], [ %159, %158 ]
  %162 = load ptr, ptr %4, align 8, !tbaa !64
  %163 = getelementptr inbounds double, ptr %162, i64 3
  store double %161, ptr %163, align 8, !tbaa !57
  %164 = load ptr, ptr %4, align 8, !tbaa !64
  %165 = getelementptr inbounds double, ptr %164, i64 0
  %166 = load double, ptr %165, align 8, !tbaa !57
  %167 = load ptr, ptr %4, align 8, !tbaa !64
  %168 = getelementptr inbounds double, ptr %167, i64 2
  %169 = load double, ptr %168, align 8, !tbaa !57
  %170 = fcmp ogt double %166, %169
  br i1 %170, label %171, label %183

171:                                              ; preds = %160
  call void @llvm.lifetime.start.p0(i64 8, ptr %5) #3
  %172 = load ptr, ptr %4, align 8, !tbaa !64
  %173 = getelementptr inbounds double, ptr %172, i64 0
  %174 = load double, ptr %173, align 8, !tbaa !57
  store double %174, ptr %5, align 8, !tbaa !57
  %175 = load ptr, ptr %4, align 8, !tbaa !64
  %176 = getelementptr inbounds double, ptr %175, i64 2
  %177 = load double, ptr %176, align 8, !tbaa !57
  %178 = load ptr, ptr %4, align 8, !tbaa !64
  %179 = getelementptr inbounds double, ptr %178, i64 0
  store double %177, ptr %179, align 8, !tbaa !57
  %180 = load double, ptr %5, align 8, !tbaa !57
  %181 = load ptr, ptr %4, align 8, !tbaa !64
  %182 = getelementptr inbounds double, ptr %181, i64 2
  store double %180, ptr %182, align 8, !tbaa !57
  call void @llvm.lifetime.end.p0(i64 8, ptr %5) #3
  br label %183

183:                                              ; preds = %171, %160
  %184 = load ptr, ptr %4, align 8, !tbaa !64
  %185 = getelementptr inbounds double, ptr %184, i64 1
  %186 = load double, ptr %185, align 8, !tbaa !57
  %187 = load ptr, ptr %4, align 8, !tbaa !64
  %188 = getelementptr inbounds double, ptr %187, i64 3
  %189 = load double, ptr %188, align 8, !tbaa !57
  %190 = fcmp ogt double %186, %189
  br i1 %190, label %191, label %203

191:                                              ; preds = %183
  call void @llvm.lifetime.start.p0(i64 8, ptr %6) #3
  %192 = load ptr, ptr %4, align 8, !tbaa !64
  %193 = getelementptr inbounds double, ptr %192, i64 1
  %194 = load double, ptr %193, align 8, !tbaa !57
  store double %194, ptr %6, align 8, !tbaa !57
  %195 = load ptr, ptr %4, align 8, !tbaa !64
  %196 = getelementptr inbounds double, ptr %195, i64 3
  %197 = load double, ptr %196, align 8, !tbaa !57
  %198 = load ptr, ptr %4, align 8, !tbaa !64
  %199 = getelementptr inbounds double, ptr %198, i64 1
  store double %197, ptr %199, align 8, !tbaa !57
  %200 = load double, ptr %6, align 8, !tbaa !57
  %201 = load ptr, ptr %4, align 8, !tbaa !64
  %202 = getelementptr inbounds double, ptr %201, i64 3
  store double %200, ptr %202, align 8, !tbaa !57
  call void @llvm.lifetime.end.p0(i64 8, ptr %6) #3
  br label %203

203:                                              ; preds = %191, %183
  ret void
}