; Function Attrs: mustprogress nofree norecurse nosync nounwind willreturn memory(argmem: readwrite) uwtable
define hidden void @_ZNK2cv18TrackingFunctionPF13correctParamsEPd(ptr noundef nonnull readonly align 8 captures(none) dereferenceable(312) %0, ptr noundef captures(none) %1) unnamed_addr #17 align 2 {
  %3 = load double, ptr %1, align 8, !tbaa !45
  %4 = fcmp olt double %3, 0.000000e+00
  %5 = select i1 %4, double 0.000000e+00, double %3
  %6 = getelementptr inbounds nuw i8, ptr %0, i64 20
  %7 = load i32, ptr %6, align 4, !tbaa !140
  %8 = sitofp i32 %7 to double
  %9 = fadd double %8, 9.000000e-01
  %10 = fcmp ogt double %5, %9
  %11 = select i1 %10, double %9, double %5
  store double %11, ptr %1, align 8, !tbaa !45
  %12 = getelementptr inbounds nuw i8, ptr %1, i64 8
  %13 = load double, ptr %12, align 8, !tbaa !45
  %14 = fcmp olt double %13, 0.000000e+00
  %15 = select i1 %14, double 0.000000e+00, double %13
  %16 = getelementptr inbounds nuw i8, ptr %0, i64 16
  %17 = load i32, ptr %16, align 8, !tbaa !141
  %18 = sitofp i32 %17 to double
  %19 = fadd double %18, 9.000000e-01
  %20 = fcmp ogt double %15, %19
  %21 = select i1 %20, double %19, double %15
  store double %21, ptr %12, align 8, !tbaa !45
  %22 = getelementptr inbounds nuw i8, ptr %1, i64 16
  %23 = load double, ptr %22, align 8, !tbaa !45
  %24 = fcmp olt double %23, 0.000000e+00
  %25 = select i1 %24, double 0.000000e+00, double %23
  %26 = fcmp ogt double %25, %9
  %27 = select i1 %26, double %9, double %25
  store double %27, ptr %22, align 8, !tbaa !45
  %28 = getelementptr inbounds nuw i8, ptr %1, i64 24
  %29 = load double, ptr %28, align 8, !tbaa !45
  %30 = fcmp olt double %29, 0.000000e+00
  %31 = select i1 %30, double 0.000000e+00, double %29
  %32 = fcmp ogt double %31, %19
  %33 = select i1 %32, double %19, double %31
  store double %33, ptr %28, align 8, !tbaa !45
  %34 = fcmp ogt double %11, %27
  br i1 %34, label %35, label %36

35:                                               ; preds = %2
  store double %27, ptr %1, align 8, !tbaa !45
  store double %11, ptr %22, align 8, !tbaa !45
  br label %36

36:                                               ; preds = %35, %2
  %37 = fcmp ogt double %21, %33
  br i1 %37, label %38, label %39

38:                                               ; preds = %36
  store double %33, ptr %12, align 8, !tbaa !45
  store double %21, ptr %28, align 8, !tbaa !45
  br label %39

39:                                               ; preds = %38, %36
  ret void
}